; ModuleID = '54/99.c'
source_filename = "54/99.c"
target datalayout = "e-m:e-p270:32:32-p271:32:32-p272:64:64-i64:64-f80:128-n8:16:32:64-S128"
target triple = "x86_64-pc-linux-gnu"

@.str = private unnamed_addr constant [6 x i8] c"%d %d\00", align 1
@.str.1 = private unnamed_addr constant [3 x i8] c"%d\00", align 1

; Function Attrs: noinline nounwind uwtable
define dso_local i32 @undi(i32 %0, i32 %1, i32 %2) #0 {
  %4 = alloca i32, align 4
  %5 = alloca i32, align 4
  %6 = alloca i32, align 4
  %7 = alloca i32, align 4
  %8 = alloca i32, align 4
  store i32 %0, i32* %4, align 4
  store i32 %1, i32* %5, align 4
  store i32 %2, i32* %6, align 4
  %9 = load i32, i32* %6, align 4
  store i32 %9, i32* %7, align 4
  %10 = load i32, i32* %4, align 4
  store i32 %10, i32* %8, align 4
  br label %11

11:                                               ; preds = %36, %3
  %12 = load i32, i32* %8, align 4
  %13 = icmp sgt i32 %12, 1
  br i1 %13, label %14, label %37

14:                                               ; preds = %11
  %15 = load i32, i32* %7, align 4
  %16 = load i32, i32* %4, align 4
  %17 = mul nsw i32 %15, %16
  %18 = load i32, i32* %5, align 4
  %19 = add nsw i32 %17, %18
  %20 = load i32, i32* %4, align 4
  %21 = sub nsw i32 %20, 1
  %22 = srem i32 %19, %21
  %23 = icmp eq i32 %22, 0
  br i1 %23, label %24, label %35

24:                                               ; preds = %14
  %25 = load i32, i32* %8, align 4
  %26 = add nsw i32 %25, -1
  store i32 %26, i32* %8, align 4
  %27 = load i32, i32* %7, align 4
  %28 = load i32, i32* %4, align 4
  %29 = mul nsw i32 %27, %28
  %30 = load i32, i32* %5, align 4
  %31 = add nsw i32 %29, %30
  %32 = load i32, i32* %4, align 4
  %33 = sub nsw i32 %32, 1
  %34 = sdiv i32 %31, %33
  store i32 %34, i32* %7, align 4
  br label %36

35:                                               ; preds = %14
  br label %37

36:                                               ; preds = %24
  br label %11

37:                                               ; preds = %35, %11
  %38 = load i32, i32* %8, align 4
  %39 = icmp sgt i32 %38, 1
  br i1 %39, label %40, label %41

40:                                               ; preds = %37
  store i32 0, i32* %7, align 4
  br label %47

41:                                               ; preds = %37
  %42 = load i32, i32* %7, align 4
  %43 = load i32, i32* %4, align 4
  %44 = mul nsw i32 %42, %43
  %45 = load i32, i32* %5, align 4
  %46 = add nsw i32 %44, %45
  store i32 %46, i32* %7, align 4
  br label %47

47:                                               ; preds = %41, %40
  %48 = load i32, i32* %7, align 4
  ret i32 %48
}

; Function Attrs: noinline nounwind uwtable
define dso_local void @main() #0 {
  %1 = alloca i32, align 4
  %2 = alloca i32, align 4
  %3 = alloca i32, align 4
  %4 = alloca i32, align 4
  %5 = call i32 (i8*, ...) @__isoc99_scanf(i8* getelementptr inbounds ([6 x i8], [6 x i8]* @.str, i64 0, i64 0), i32* %1, i32* %2)
  store i32 1, i32* %3, align 4
  br label %6

6:                                                ; preds = %14, %0
  %7 = load i32, i32* %1, align 4
  %8 = load i32, i32* %2, align 4
  %9 = load i32, i32* %3, align 4
  %10 = call i32 @undi(i32 %7, i32 %8, i32 %9)
  %11 = icmp ne i32 %10, 0
  br i1 %11, label %12, label %13

12:                                               ; preds = %6
  br label %17

13:                                               ; preds = %6
  br label %14

14:                                               ; preds = %13
  %15 = load i32, i32* %3, align 4
  %16 = add nsw i32 %15, 1
  store i32 %16, i32* %3, align 4
  br label %6

17:                                               ; preds = %12
  %18 = load i32, i32* %1, align 4
  %19 = load i32, i32* %2, align 4
  %20 = load i32, i32* %3, align 4
  %21 = call i32 @undi(i32 %18, i32 %19, i32 %20)
  store i32 %21, i32* %4, align 4
  %22 = load i32, i32* %4, align 4
  %23 = call i32 (i8*, ...) @printf(i8* getelementptr inbounds ([3 x i8], [3 x i8]* @.str.1, i64 0, i64 0), i32 %22)
  ret void
}

declare dso_local i32 @__isoc99_scanf(i8*, ...) #1

declare dso_local i32 @printf(i8*, ...) #1


!llvm.module.flags = !{!0}
!llvm.ident = !{!1}

!0 = !{i32 1, !"wchar_size", i32 4}
!1 = !{!"clang version 10.0.0-4ubuntu1 "}
